(iworkspace_generation_utils
WorkspaceParams
p0
(dp1
S'rays'
p2
(lp3
F1.4342102928092384
asS'centers_position_z'
p4
(lp5
cnumpy.core.multiarray
scalar
p6
(cnumpy
dtype
p7
(S'f8'
p8
I0
I1
tp9
Rp10
(I3
S'<'
p11
NNNI-1
I-1
I0
tp12
bS' \x11\x07\x1fQ\xaf\xd9?'
p13
tp14
Rp15
asS'centers_position_x'
p16
(lp17
g6
(g10
S'\x10\x91\xd1\xe0\x19q\xb3?'
p18
tp19
Rp20
asS'sides_z'
p21
(lp22
F0.02132579099750269
asS'sides_x'
p23
(lp24
F0.08972291045787252
asS'y_axis_rotation'
p25
(lp26
F0.5073497407407829
asS'number_of_obstacles'
p27
I1
sb.