(iworkspace_generation_utils
WorkspaceParams
p0
(dp1
S'rays'
p2
(lp3
F1.7631549074217385
aF3.0268493844546414
aF1.1717662380287237
asS'centers_position_z'
p4
(lp5
cnumpy.core.multiarray
scalar
p6
(cnumpy
dtype
p7
(S'f8'
p8
I0
I1
tp9
Rp10
(I3
S'<'
p11
NNNI-1
I-1
I0
tp12
bS'1I\x8b\x18\x9fk\xd8?'
p13
tp14
Rp15
ag6
(g10
S'\x80A\x08\xb7\xec~\xc8?'
p16
tp17
Rp18
ag6
(g10
S'*\xc9E\x8bg9\xd5?'
p19
tp20
Rp21
asS'centers_position_x'
p22
(lp23
g6
(g10
S'<\x0c\x03\xbc+\xf3\x8f\xbf'
p24
tp25
Rp26
ag6
(g10
S'\xdap\xbf>;\xe4\xd0\xbf'
p27
tp28
Rp29
ag6
(g10
S'\x9c\x13\x89_A\n\xbf?'
p30
tp31
Rp32
asS'sides_z'
p33
(lp34
F0.031595362424980254
aF0.07311964687027067
aF0.013662605269010942
asS'sides_x'
p35
(lp36
F0.06051720874926647
aF0.06620918769422199
aF0.03453702324022941
asS'y_axis_rotation'
p37
(lp38
F0.44640866069928176
aF0.49666947854374277
aF1.0425917443644306
asS'number_of_obstacles'
p39
I3
sb.